target datalayout = "e-m:e-p270:32:32-p271:32:32-p272:64:64-i64:64-i128:128-f80:128-n8:16:32:64-S128"
target triple = "x86_64-pc-linux-gnu"

%struct.H5FS_t = type { %struct.H5C_cache_entry_t, i64, i64, i64, i64, i32, i16, i32, i32, i32, i64, i64, i64, i64, i32, i64, i64, ptr, i8, i32, i8, i8, i32, i64, i64, i64, ptr }
%struct.H5C_cache_entry_t = type { ptr, i64, i64, ptr, i8, ptr, i8, i8, i8, i8, i32, i8, i8, i8, i8, i8, i32, ptr, i32, i32, i32, i32, i32, i8, i8, ptr, ptr, ptr, ptr, ptr, ptr, i8, i32, i8, i64, ptr, i64, i64, i32, i8, i32, i32, i8, ptr, ptr, ptr }
%struct.H5FS_sinfo_t = type { %struct.H5C_cache_entry_t, ptr, i8, i32, i64, i64, i64, i64, i32, i32, i32, ptr, ptr }
%struct.H5FS_iter_ud_t = type { ptr, ptr, i32 }
%struct.H5FS_bin_t = type { i64, i64, i64, ptr }

@.str.2 = private unnamed_addr constant [103 x i8] c"generated/home/dtcxzyw/WorkSpace/Projects/compilers/llvm-opt-benchmark/bench/hdf5/hdf5/src/H5FScache.c\00", align 1
@H5E_FSPACE_g = external global i64, align 8
@.str.20 = private unnamed_addr constant [5 x i8] c"FSSE\00", align 1
@__func__.H5FS__cache_sinfo_serialize = private unnamed_addr constant [28 x i8] c"H5FS__cache_sinfo_serialize\00", align 1
@H5E_BADITER_g = external global i64, align 8
@.str.28 = private unnamed_addr constant [38 x i8] c"can't iterate over section size nodes\00", align 1

; Function Attrs: nounwind uwtable
define internal i32 @H5VM_log2_gen(i64 noundef %0) #0 {
  %2 = alloca i64, align 8
  %3 = alloca i32, align 4
  %4 = alloca i32, align 4
  %5 = alloca i32, align 4
  %6 = alloca i32, align 4
  store i64 %0, ptr %2, align 8
  %7 = load i64, ptr %2, align 8
  %8 = lshr i64 %7, 32
  %9 = trunc i64 %8 to i32
  store i32 %9, ptr %6, align 4
  %10 = icmp ne i32 %9, 0
  br i1 %10, label %11, label %61

11:                                               ; preds = %1
  %12 = load i64, ptr %2, align 8
  %13 = lshr i64 %12, 48
  %14 = trunc i64 %13 to i32
  store i32 %14, ptr %5, align 4
  %15 = icmp ne i32 %14, 0
  br i1 %15, label %16, label %38

16:                                               ; preds = %11
  %17 = load i64, ptr %2, align 8
  %18 = lshr i64 %17, 56
  %19 = trunc i64 %18 to i32
  store i32 %19, ptr %4, align 4
  %20 = icmp ne i32 %19, 0
  br i1 %20, label %21, label %28

21:                                               ; preds = %16
  %22 = load i32, ptr %4, align 4
  %23 = zext i32 %22 to i64
  %24 = getelementptr inbounds [256 x i8], ptr @LogTable256, i64 0, i64 %23
  %25 = load i8, ptr %24, align 1
  %26 = zext i8 %25 to i32
  %27 = add i32 56, %26
  br label %36

28:                                               ; preds = %16
  %29 = load i32, ptr %5, align 4
  %30 = and i32 %29, 255
  %31 = zext i32 %30 to i64
  %32 = getelementptr inbounds [256 x i8], ptr @LogTable256, i64 0, i64 %31
  %33 = load i8, ptr %32, align 1
  %34 = zext i8 %33 to i32
  %35 = add i32 48, %34
  br label %36

36:                                               ; preds = %28, %21
  %37 = phi i32 [ %27, %21 ], [ %35, %28 ]
  store i32 %37, ptr %3, align 4
  br label %60

38:                                               ; preds = %11
  %39 = load i64, ptr %2, align 8
  %40 = lshr i64 %39, 40
  %41 = trunc i64 %40 to i32
  store i32 %41, ptr %4, align 4
  %42 = icmp ne i32 %41, 0
  br i1 %42, label %43, label %50

43:                                               ; preds = %38
  %44 = load i32, ptr %4, align 4
  %45 = zext i32 %44 to i64
  %46 = getelementptr inbounds [256 x i8], ptr @LogTable256, i64 0, i64 %45
  %47 = load i8, ptr %46, align 1
  %48 = zext i8 %47 to i32
  %49 = add i32 40, %48
  br label %58

50:                                               ; preds = %38
  %51 = load i32, ptr %6, align 4
  %52 = and i32 %51, 255
  %53 = zext i32 %52 to i64
  %54 = getelementptr inbounds [256 x i8], ptr @LogTable256, i64 0, i64 %53
  %55 = load i8, ptr %54, align 1
  %56 = zext i8 %55 to i32
  %57 = add i32 32, %56
  br label %58

58:                                               ; preds = %50, %43
  %59 = phi i32 [ %49, %43 ], [ %57, %50 ]
  store i32 %59, ptr %3, align 4
  br label %60

60:                                               ; preds = %58, %36
  br label %110

61:                                               ; preds = %1
  %62 = load i64, ptr %2, align 8
  %63 = lshr i64 %62, 16
  %64 = trunc i64 %63 to i32
  store i32 %64, ptr %5, align 4
  %65 = icmp ne i32 %64, 0
  br i1 %65, label %66, label %88

66:                                               ; preds = %61
  %67 = load i64, ptr %2, align 8
  %68 = lshr i64 %67, 24
  %69 = trunc i64 %68 to i32
  store i32 %69, ptr %4, align 4
  %70 = icmp ne i32 %69, 0
  br i1 %70, label %71, label %78

71:                                               ; preds = %66
  %72 = load i32, ptr %4, align 4
  %73 = zext i32 %72 to i64
  %74 = getelementptr inbounds [256 x i8], ptr @LogTable256, i64 0, i64 %73
  %75 = load i8, ptr %74, align 1
  %76 = zext i8 %75 to i32
  %77 = add i32 24, %76
  br label %86

78:                                               ; preds = %66
  %79 = load i32, ptr %5, align 4
  %80 = and i32 %79, 255
  %81 = zext i32 %80 to i64
  %82 = getelementptr inbounds [256 x i8], ptr @LogTable256, i64 0, i64 %81
  %83 = load i8, ptr %82, align 1
  %84 = zext i8 %83 to i32
  %85 = add i32 16, %84
  br label %86

86:                                               ; preds = %78, %71
  %87 = phi i32 [ %77, %71 ], [ %85, %78 ]
  store i32 %87, ptr %3, align 4
  br label %109

88:                                               ; preds = %61
  %89 = load i64, ptr %2, align 8
  %90 = lshr i64 %89, 8
  %91 = trunc i64 %90 to i32
  store i32 %91, ptr %4, align 4
  %92 = icmp ne i32 %91, 0
  br i1 %92, label %93, label %100

93:                                               ; preds = %88
  %94 = load i32, ptr %4, align 4
  %95 = zext i32 %94 to i64
  %96 = getelementptr inbounds [256 x i8], ptr @LogTable256, i64 0, i64 %95
  %97 = load i8, ptr %96, align 1
  %98 = zext i8 %97 to i32
  %99 = add i32 8, %98
  br label %107

100:                                              ; preds = %88
  %101 = load i64, ptr %2, align 8
  %102 = trunc i64 %101 to i8
  %103 = zext i8 %102 to i64
  %104 = getelementptr inbounds [256 x i8], ptr @LogTable256, i64 0, i64 %103
  %105 = load i8, ptr %104, align 1
  %106 = zext i8 %105 to i32
  br label %107

107:                                              ; preds = %100, %93
  %108 = phi i32 [ %99, %93 ], [ %106, %100 ]
  store i32 %108, ptr %3, align 4
  br label %109

109:                                              ; preds = %107, %86
  br label %110

110:                                              ; preds = %109, %60
  %111 = load i32, ptr %3, align 4
  ret i32 %111
}

; Function Attrs: nounwind uwtable
define internal i32 @H5VM_limit_enc_size(i64 noundef %0) #0 {
  %2 = alloca i64, align 8
  store i64 %0, ptr %2, align 8
  %3 = load i64, ptr %2, align 8
  %4 = call i32 @H5VM_log2_gen(i64 noundef %3)
  %5 = udiv i32 %4, 8
  %6 = add i32 %5, 1
  ret i32 %6
}

; Function Attrs: nounwind uwtable
define internal i32 @H5FS__cache_sinfo_serialize(ptr noundef %0, ptr noundef %1, i64 noundef %2, ptr noundef %3) #0 {
  %5 = alloca ptr, align 8
  %6 = alloca ptr, align 8
  %7 = alloca i64, align 8
  %8 = alloca ptr, align 8
  %9 = alloca ptr, align 8
  %10 = alloca %struct.H5FS_iter_ud_t, align 8
  %11 = alloca i64, align 8
  %12 = alloca ptr, align 8
  %13 = alloca ptr, align 8
  %14 = alloca i32, align 4
  %15 = alloca i32, align 4
  %16 = alloca i32, align 4
  %17 = alloca i8, align 1
  store ptr %0, ptr %5, align 8
  store ptr %1, ptr %6, align 8
  store i64 %2, ptr %7, align 8
  store ptr %3, ptr %8, align 8
  %18 = load ptr, ptr %8, align 8
  store ptr %18, ptr %9, align 8
  %19 = load ptr, ptr %6, align 8
  store ptr %19, ptr %12, align 8
  store ptr null, ptr %13, align 8
  store i32 0, ptr %16, align 4
  store i8 0, ptr %17, align 1
  %20 = load ptr, ptr %12, align 8
  call void @llvm.memcpy.p0.p0.i64(ptr align 1 %20, ptr align 1 @.str.20, i64 4, i1 false)
  %21 = load ptr, ptr %12, align 8
  %22 = getelementptr inbounds i8, ptr %21, i64 4
  store ptr %22, ptr %12, align 8
  %23 = load ptr, ptr %12, align 8
  %24 = getelementptr inbounds i8, ptr %23, i32 1
  store ptr %24, ptr %12, align 8
  store i8 0, ptr %23, align 1
  %25 = load ptr, ptr %5, align 8
  %26 = load ptr, ptr %9, align 8
  %27 = getelementptr inbounds %struct.H5FS_sinfo_t, ptr %26, i32 0, i32 11
  %28 = load ptr, ptr %27, align 8
  %29 = getelementptr inbounds %struct.H5FS_t, ptr %28, i32 0, i32 15
  %30 = load i64, ptr %29, align 8
  call void @H5F_addr_encode(ptr noundef %25, ptr noundef %12, i64 noundef %30)
  %31 = load ptr, ptr %9, align 8
  %32 = getelementptr inbounds %struct.H5FS_iter_ud_t, ptr %10, i32 0, i32 0
  store ptr %31, ptr %32, align 8
  %33 = getelementptr inbounds %struct.H5FS_iter_ud_t, ptr %10, i32 0, i32 1
  store ptr %12, ptr %33, align 8
  %34 = load ptr, ptr %9, align 8
  %35 = getelementptr inbounds %struct.H5FS_sinfo_t, ptr %34, i32 0, i32 11
  %36 = load ptr, ptr %35, align 8
  %37 = getelementptr inbounds %struct.H5FS_t, ptr %36, i32 0, i32 3
  %38 = load i64, ptr %37, align 8
  %39 = call i32 @H5VM_limit_enc_size(i64 noundef %38)
  %40 = getelementptr inbounds %struct.H5FS_iter_ud_t, ptr %10, i32 0, i32 2
  store i32 %39, ptr %40, align 8
  store i32 0, ptr %15, align 4
  br label %41

41:                                               ; preds = %85, %4
  %42 = load i32, ptr %15, align 4
  %43 = load ptr, ptr %9, align 8
  %44 = getelementptr inbounds %struct.H5FS_sinfo_t, ptr %43, i32 0, i32 3
  %45 = load i32, ptr %44, align 4
  %46 = icmp ult i32 %42, %45
  br i1 %46, label %47, label %88

47:                                               ; preds = %41
  %48 = load ptr, ptr %9, align 8
  %49 = getelementptr inbounds %struct.H5FS_sinfo_t, ptr %48, i32 0, i32 1
  %50 = load ptr, ptr %49, align 8
  %51 = load i32, ptr %15, align 4
  %52 = zext i32 %51 to i64
  %53 = getelementptr inbounds %struct.H5FS_bin_t, ptr %50, i64 %52
  %54 = getelementptr inbounds %struct.H5FS_bin_t, ptr %53, i32 0, i32 3
  %55 = load ptr, ptr %54, align 8
  %56 = icmp ne ptr %55, null
  br i1 %56, label %57, label %84

57:                                               ; preds = %47
  %58 = load ptr, ptr %9, align 8
  %59 = getelementptr inbounds %struct.H5FS_sinfo_t, ptr %58, i32 0, i32 1
  %60 = load ptr, ptr %59, align 8
  %61 = load i32, ptr %15, align 4
  %62 = zext i32 %61 to i64
  %63 = getelementptr inbounds %struct.H5FS_bin_t, ptr %60, i64 %62
  %64 = getelementptr inbounds %struct.H5FS_bin_t, ptr %63, i32 0, i32 3
  %65 = load ptr, ptr %64, align 8
  %66 = call i32 @H5SL_iterate(ptr noundef %65, ptr noundef @H5FS__sinfo_serialize_node_cb, ptr noundef %10)
  %67 = icmp slt i32 %66, 0
  br i1 %67, label %68, label %83

68:                                               ; preds = %57
  br label %69

69:                                               ; preds = %68
  br label %70

70:                                               ; preds = %69
  br label %71

71:                                               ; preds = %70
  %72 = load i64, ptr @H5E_FSPACE_g, align 8
  %73 = load i64, ptr @H5E_BADITER_g, align 8
  %74 = call i32 (ptr, ptr, i32, i64, i64, ptr, ...) @H5E_printf_stack(ptr noundef @.str.2, ptr noundef @__func__.H5FS__cache_sinfo_serialize, i32 noundef 1234, i64 noundef %72, i64 noundef %73, ptr noundef @.str.28)
  br label %75

75:                                               ; preds = %71
  store i8 1, ptr %17, align 1
  %76 = load i8, ptr %17, align 1
  %77 = trunc i8 %76 to i1
  %78 = zext i1 %77 to i8
  store i8 %78, ptr %17, align 1
  br label %79

79:                                               ; preds = %75
  br label %80

80:                                               ; preds = %79
  store i32 -1, ptr %16, align 4
  br label %140

81:                                               ; No predecessors!
  br label %82

82:                                               ; preds = %81
  br label %83

83:                                               ; preds = %82, %57
  br label %84

84:                                               ; preds = %83, %47
  br label %85

85:                                               ; preds = %84
  %86 = load i32, ptr %15, align 4
  %87 = add i32 %86, 1
  store i32 %87, ptr %15, align 4
  br label %41

88:                                               ; preds = %41
  %89 = load ptr, ptr %6, align 8
  %90 = load i64, ptr %7, align 8
  %91 = getelementptr inbounds i8, ptr %89, i64 %90
  %92 = getelementptr inbounds i8, ptr %91, i64 -4
  store ptr %92, ptr %13, align 8
  %93 = load ptr, ptr %13, align 8
  %94 = load ptr, ptr %12, align 8
  %95 = ptrtoint ptr %93 to i64
  %96 = ptrtoint ptr %94 to i64
  %97 = sub i64 %95, %96
  store i64 %97, ptr %11, align 8
  %98 = load i64, ptr %11, align 8
  %99 = icmp sgt i64 %98, 0
  br i1 %99, label %100, label %103

100:                                              ; preds = %88
  %101 = load ptr, ptr %12, align 8
  %102 = load i64, ptr %11, align 8
  call void @llvm.memset.p0.i64(ptr align 1 %101, i8 0, i64 %102, i1 false)
  br label %103

103:                                              ; preds = %100, %88
  %104 = load ptr, ptr %6, align 8
  %105 = load ptr, ptr %13, align 8
  %106 = load ptr, ptr %6, align 8
  %107 = ptrtoint ptr %105 to i64
  %108 = ptrtoint ptr %106 to i64
  %109 = sub i64 %107, %108
  %110 = call i32 @H5_checksum_metadata(ptr noundef %104, i64 noundef %109, i32 noundef 0)
  store i32 %110, ptr %14, align 4
  br label %111

111:                                              ; preds = %103
  %112 = load i32, ptr %14, align 4
  %113 = and i32 %112, 255
  %114 = trunc i32 %113 to i8
  %115 = load ptr, ptr %13, align 8
  store i8 %114, ptr %115, align 1
  %116 = load ptr, ptr %13, align 8
  %117 = getelementptr inbounds i8, ptr %116, i32 1
  store ptr %117, ptr %13, align 8
  %118 = load i32, ptr %14, align 4
  %119 = lshr i32 %118, 8
  %120 = and i32 %119, 255
  %121 = trunc i32 %120 to i8
  %122 = load ptr, ptr %13, align 8
  store i8 %121, ptr %122, align 1
  %123 = load ptr, ptr %13, align 8
  %124 = getelementptr inbounds i8, ptr %123, i32 1
  store ptr %124, ptr %13, align 8
  %125 = load i32, ptr %14, align 4
  %126 = lshr i32 %125, 16
  %127 = and i32 %126, 255
  %128 = trunc i32 %127 to i8
  %129 = load ptr, ptr %13, align 8
  store i8 %128, ptr %129, align 1
  %130 = load ptr, ptr %13, align 8
  %131 = getelementptr inbounds i8, ptr %130, i32 1
  store ptr %131, ptr %13, align 8
  %132 = load i32, ptr %14, align 4
  %133 = lshr i32 %132, 24
  %134 = and i32 %133, 255
  %135 = trunc i32 %134 to i8
  %136 = load ptr, ptr %13, align 8
  store i8 %135, ptr %136, align 1
  %137 = load ptr, ptr %13, align 8
  %138 = getelementptr inbounds i8, ptr %137, i32 1
  store ptr %138, ptr %13, align 8
  br label %139

139:                                              ; preds = %111
  br label %140

140:                                              ; preds = %139, %80
  %141 = load i32, ptr %16, align 4
  ret i32 %141
}