; Function Attrs: nounwind uwtable
define internal range(i32 -1, 1) i32 @H5FS__cache_sinfo_serialize(ptr noundef %0, ptr noundef %1, i64 noundef %2, ptr noundef %3) #0 {
  %5 = alloca %struct.H5FS_iter_ud_t, align 8
  %6 = alloca ptr, align 8
  store i32 1163088710, ptr %1, align 1
  %7 = getelementptr inbounds i8, ptr %1, i64 4
  %8 = getelementptr inbounds i8, ptr %1, i64 5
  store ptr %8, ptr %6, align 8
  store i8 0, ptr %7, align 1
  %9 = getelementptr inbounds i8, ptr %3, i64 312
  %10 = load ptr, ptr %9, align 8
  %11 = getelementptr inbounds i8, ptr %10, i64 344
  %12 = load i64, ptr %11, align 8
  call void @H5F_addr_encode(ptr noundef %0, ptr noundef nonnull %6, i64 noundef %12) #7
  store ptr %3, ptr %5, align 8
  %13 = getelementptr inbounds i8, ptr %5, i64 8
  store ptr %6, ptr %13, align 8
  %14 = load ptr, ptr %9, align 8
  %15 = getelementptr inbounds i8, ptr %14, i64 264
  %16 = load i64, ptr %15, align 8
  %17 = lshr i64 %16, 32
  %.not.i.i = icmp ult i64 %16, 4294967296
  br i1 %.not.i.i, label %46, label %18

18:                                               ; preds = %4
  %19 = lshr i64 %16, 48
  %.not26.i.i = icmp ult i64 %16, 281474976710656
  br i1 %.not26.i.i, label %33, label %20

20:                                               ; preds = %18
  %.not28.i.i = icmp ult i64 %16, 72057594037927936
  br i1 %.not28.i.i, label %27, label %21

21:                                               ; preds = %20
  %22 = lshr i64 %16, 56
  %23 = getelementptr inbounds [256 x i8], ptr @LogTable256, i64 0, i64 %22
  %24 = load i8, ptr %23, align 1
  %25 = zext i8 %24 to i32
  %26 = add nuw nsw i32 %25, 56
  br label %H5VM_limit_enc_size.exit

27:                                               ; preds = %20
  %28 = and i64 %19, 255
  %29 = getelementptr inbounds [256 x i8], ptr @LogTable256, i64 0, i64 %28
  %30 = load i8, ptr %29, align 1
  %31 = zext i8 %30 to i32
  %32 = add nuw nsw i32 %31, 48
  br label %H5VM_limit_enc_size.exit

33:                                               ; preds = %18
  %.not27.i.i = icmp ult i64 %16, 1099511627776
  br i1 %.not27.i.i, label %40, label %34

34:                                               ; preds = %33
  %35 = lshr i64 %16, 40
  %36 = getelementptr inbounds [256 x i8], ptr @LogTable256, i64 0, i64 %35
  %37 = load i8, ptr %36, align 1
  %38 = zext i8 %37 to i32
  %39 = add nuw nsw i32 %38, 40
  br label %H5VM_limit_enc_size.exit

40:                                               ; preds = %33
  %41 = and i64 %17, 255
  %42 = getelementptr inbounds [256 x i8], ptr @LogTable256, i64 0, i64 %41
  %43 = load i8, ptr %42, align 1
  %44 = zext i8 %43 to i32
  %45 = add nuw nsw i32 %44, 32
  br label %H5VM_limit_enc_size.exit

46:                                               ; preds = %4
  %47 = lshr i64 %16, 16
  %.not23.i.i = icmp ult i64 %16, 65536
  br i1 %.not23.i.i, label %61, label %48

48:                                               ; preds = %46
  %.not25.i.i = icmp ult i64 %16, 16777216
  br i1 %.not25.i.i, label %55, label %49

49:                                               ; preds = %48
  %50 = lshr i64 %16, 24
  %51 = getelementptr inbounds [256 x i8], ptr @LogTable256, i64 0, i64 %50
  %52 = load i8, ptr %51, align 1
  %53 = zext i8 %52 to i32
  %54 = add nuw nsw i32 %53, 24
  br label %H5VM_limit_enc_size.exit

55:                                               ; preds = %48
  %56 = and i64 %47, 255
  %57 = getelementptr inbounds [256 x i8], ptr @LogTable256, i64 0, i64 %56
  %58 = load i8, ptr %57, align 1
  %59 = zext i8 %58 to i32
  %60 = add nuw nsw i32 %59, 16
  br label %H5VM_limit_enc_size.exit

61:                                               ; preds = %46
  %.not24.i.i = icmp ult i64 %16, 256
  br i1 %.not24.i.i, label %68, label %62

62:                                               ; preds = %61
  %63 = lshr i64 %16, 8
  %64 = getelementptr inbounds [256 x i8], ptr @LogTable256, i64 0, i64 %63
  %65 = load i8, ptr %64, align 1
  %66 = zext i8 %65 to i32
  %67 = add nuw nsw i32 %66, 8
  br label %H5VM_limit_enc_size.exit

68:                                               ; preds = %61
  %69 = getelementptr inbounds [256 x i8], ptr @LogTable256, i64 0, i64 %16
  %70 = load i8, ptr %69, align 1
  %71 = zext i8 %70 to i32
  br label %H5VM_limit_enc_size.exit

H5VM_limit_enc_size.exit:                         ; preds = %21, %27, %34, %40, %49, %55, %62, %68
  %.0.i.i = phi i32 [ %26, %21 ], [ %32, %27 ], [ %39, %34 ], [ %45, %40 ], [ %54, %49 ], [ %60, %55 ], [ %67, %62 ], [ %71, %68 ]
  %72 = lshr i32 %.0.i.i, 3
  %73 = add nuw nsw i32 %72, 1
  %74 = getelementptr inbounds i8, ptr %5, i64 16
  store i32 %73, ptr %74, align 8
  %75 = getelementptr inbounds i8, ptr %3, i64 260
  %76 = load i32, ptr %75, align 4
  %.not38 = icmp eq i32 %76, 0
  br i1 %.not38, label %._crit_edge, label %.lr.ph

.lr.ph:                                           ; preds = %H5VM_limit_enc_size.exit
  %77 = getelementptr inbounds i8, ptr %3, i64 248
  br label %78

78:                                               ; preds = %.lr.ph, %90
  %79 = phi i32 [ %76, %.lr.ph ], [ %91, %90 ]
  %indvars.iv = phi i64 [ 0, %.lr.ph ], [ %indvars.iv.next, %90 ]
  %80 = load ptr, ptr %77, align 8
  %81 = getelementptr inbounds %struct.H5FS_bin_t, ptr %80, i64 %indvars.iv, i32 3
  %82 = load ptr, ptr %81, align 8
  %.not = icmp eq ptr %82, null
  br i1 %.not, label %90, label %83

83:                                               ; preds = %78
  %84 = call i32 @H5SL_iterate(ptr noundef nonnull %82, ptr noundef nonnull @H5FS__sinfo_serialize_node_cb, ptr noundef nonnull %5) #7
  %85 = icmp slt i32 %84, 0
  br i1 %85, label %86, label %._crit_edge40

._crit_edge40:                                    ; preds = %83
  %.pre = load i32, ptr %75, align 4
  br label %90

86:                                               ; preds = %83
  %87 = load i64, ptr @H5E_FSPACE_g, align 8
  %88 = load i64, ptr @H5E_BADITER_g, align 8
  %89 = call i32 (ptr, ptr, i32, i64, i64, ptr, ...) @H5E_printf_stack(ptr noundef nonnull @.str.2, ptr noundef nonnull @__func__.H5FS__cache_sinfo_serialize, i32 noundef 1234, i64 noundef %87, i64 noundef %88, ptr noundef nonnull @.str.28) #7
  br label %116

90:                                               ; preds = %._crit_edge40, %78
  %91 = phi i32 [ %.pre, %._crit_edge40 ], [ %79, %78 ]
  %indvars.iv.next = add nuw nsw i64 %indvars.iv, 1
  %92 = zext i32 %91 to i64
  %93 = icmp ult i64 %indvars.iv.next, %92
  br i1 %93, label %78, label %._crit_edge

._crit_edge:                                      ; preds = %90, %H5VM_limit_enc_size.exit
  %94 = getelementptr inbounds i8, ptr %1, i64 %2
  %95 = getelementptr inbounds i8, ptr %94, i64 -4
  %96 = load ptr, ptr %6, align 8
  %97 = ptrtoint ptr %95 to i64
  %98 = ptrtoint ptr %96 to i64
  %99 = sub i64 %97, %98
  %100 = icmp sgt i64 %99, 0
  br i1 %100, label %101, label %102

101:                                              ; preds = %._crit_edge
  call void @llvm.memset.p0.i64(ptr align 1 %96, i8 0, i64 %99, i1 false)
  br label %102

102:                                              ; preds = %101, %._crit_edge
  %103 = ptrtoint ptr %1 to i64
  %104 = sub i64 %97, %103
  %105 = call i32 @H5_checksum_metadata(ptr noundef nonnull %1, i64 noundef %104, i32 noundef 0) #7
  %106 = trunc i32 %105 to i8
  store i8 %106, ptr %95, align 1
  %107 = getelementptr inbounds i8, ptr %94, i64 -3
  %108 = lshr i32 %105, 8
  %109 = trunc i32 %108 to i8
  store i8 %109, ptr %107, align 1
  %110 = getelementptr inbounds i8, ptr %94, i64 -2
  %111 = lshr i32 %105, 16
  %112 = trunc i32 %111 to i8
  store i8 %112, ptr %110, align 1
  %113 = getelementptr inbounds i8, ptr %94, i64 -1
  %114 = lshr i32 %105, 24
  %115 = trunc nuw i32 %114 to i8
  store i8 %115, ptr %113, align 1
  br label %116

116:                                              ; preds = %102, %86
  %.0 = phi i32 [ -1, %86 ], [ 0, %102 ]
  ret i32 %.0
}